target datalayout = "e-m:e-p270:32:32-p271:32:32-p272:64:64-i64:64-i128:128-f80:128-n8:16:32:64-S128"
target triple = "x86_64-pc-linux-gnu"

; Function Attrs: null_pointer_is_valid sspstrong uwtable
define ptr @get_ts_23_038_7bits_string_packed(ptr noundef %0, ptr noundef %1, i32 noundef %2, i32 noundef %3) #0 {
  %5 = alloca ptr, align 8
  %6 = alloca ptr, align 8
  %7 = alloca i32, align 4
  %8 = alloca i32, align 4
  %9 = alloca ptr, align 8
  %10 = alloca i32, align 4
  %11 = alloca i8, align 1
  %12 = alloca i8, align 1
  %13 = alloca i8, align 1
  %14 = alloca ptr, align 8
  %15 = alloca i8, align 1
  %16 = alloca i32, align 4
  store ptr %0, ptr %5, align 8
  store ptr %1, ptr %6, align 8
  store i32 %2, ptr %7, align 4
  store i32 %3, ptr %8, align 4
  call void @llvm.lifetime.start.p0(i64 8, ptr %9) #8
  call void @llvm.lifetime.start.p0(i64 4, ptr %10) #8
  call void @llvm.lifetime.start.p0(i64 1, ptr %11) #8
  call void @llvm.lifetime.start.p0(i64 1, ptr %12) #8
  call void @llvm.lifetime.start.p0(i64 1, ptr %13) #8
  store i8 0, ptr %13, align 1
  call void @llvm.lifetime.start.p0(i64 8, ptr %14) #8
  %17 = load ptr, ptr %6, align 8
  store ptr %17, ptr %14, align 8
  call void @llvm.lifetime.start.p0(i64 1, ptr %15) #8
  store i8 0, ptr %15, align 1
  call void @llvm.lifetime.start.p0(i64 4, ptr %16) #8
  %18 = load ptr, ptr %5, align 8
  %19 = load i32, ptr %8, align 4
  %20 = add i32 %19, 1
  %21 = sext i32 %20 to i64
  %22 = call noalias ptr @wmem_strbuf_new_sized(ptr noundef %18, i64 noundef %21)
  store ptr %22, ptr %9, align 8
  %23 = load i32, ptr %7, align 4
  %24 = and i32 %23, 7
  store i32 %24, ptr %16, align 4
  %25 = load i32, ptr %16, align 4
  %26 = icmp ne i32 %25, 0
  br i1 %26, label %28, label %27

27:                                               ; preds = %4
  store i32 7, ptr %16, align 4
  br label %28

28:                                               ; preds = %27, %4
  store i32 0, ptr %10, align 4
  br label %29

29:                                               ; preds = %89, %28
  %30 = load i32, ptr %10, align 4
  %31 = load i32, ptr %8, align 4
  %32 = icmp slt i32 %30, %31
  br i1 %32, label %33, label %92

33:                                               ; preds = %29
  %34 = load ptr, ptr %6, align 8
  %35 = load i8, ptr %34, align 1
  store i8 %35, ptr %11, align 1
  %36 = load i8, ptr %11, align 1
  %37 = zext i8 %36 to i32
  %38 = load i32, ptr %16, align 4
  %39 = shl i32 1, %38
  %40 = sub i32 %39, 1
  %41 = and i32 %37, %40
  %42 = load i32, ptr %16, align 4
  %43 = sub i32 7, %42
  %44 = shl i32 %41, %43
  %45 = load i8, ptr %13, align 1
  %46 = zext i8 %45 to i32
  %47 = or i32 %44, %46
  %48 = trunc i32 %47 to i8
  store i8 %48, ptr %12, align 1
  %49 = load i8, ptr %11, align 1
  %50 = zext i8 %49 to i32
  %51 = load i32, ptr %16, align 4
  %52 = ashr i32 %50, %51
  %53 = trunc i32 %52 to i8
  store i8 %53, ptr %13, align 1
  %54 = load ptr, ptr %14, align 8
  %55 = load ptr, ptr %6, align 8
  %56 = icmp ne ptr %54, %55
  br i1 %56, label %60, label %57

57:                                               ; preds = %33
  %58 = load i32, ptr %16, align 4
  %59 = icmp eq i32 %58, 7
  br i1 %59, label %60, label %69

60:                                               ; preds = %57, %33
  %61 = load ptr, ptr %9, align 8
  %62 = load i8, ptr %12, align 1
  %63 = load i8, ptr %15, align 1, !range !14, !noundef !15
  %64 = trunc i8 %63 to i1
  %65 = call zeroext i1 @handle_ts_23_038_char(ptr noundef %61, i8 noundef zeroext %62, i1 noundef zeroext %64)
  %66 = zext i1 %65 to i8
  store i8 %66, ptr %15, align 1
  %67 = load i32, ptr %10, align 4
  %68 = add i32 %67, 1
  store i32 %68, ptr %10, align 4
  br label %69

69:                                               ; preds = %60, %57
  %70 = load i32, ptr %16, align 4
  %71 = icmp eq i32 %70, 1
  br i1 %71, label %72, label %85

72:                                               ; preds = %69
  %73 = load i32, ptr %10, align 4
  %74 = load i32, ptr %8, align 4
  %75 = icmp slt i32 %73, %74
  br i1 %75, label %76, label %85

76:                                               ; preds = %72
  %77 = load ptr, ptr %9, align 8
  %78 = load i8, ptr %13, align 1
  %79 = load i8, ptr %15, align 1, !range !14, !noundef !15
  %80 = trunc i8 %79 to i1
  %81 = call zeroext i1 @handle_ts_23_038_char(ptr noundef %77, i8 noundef zeroext %78, i1 noundef zeroext %80)
  %82 = zext i1 %81 to i8
  store i8 %82, ptr %15, align 1
  %83 = load i32, ptr %10, align 4
  %84 = add i32 %83, 1
  store i32 %84, ptr %10, align 4
  store i32 7, ptr %16, align 4
  store i8 0, ptr %13, align 1
  br label %88

85:                                               ; preds = %72, %69
  %86 = load i32, ptr %16, align 4
  %87 = add i32 %86, -1
  store i32 %87, ptr %16, align 4
  br label %88

88:                                               ; preds = %85, %76
  br label %89

89:                                               ; preds = %88
  %90 = load ptr, ptr %6, align 8
  %91 = getelementptr i8, ptr %90, i32 1
  store ptr %91, ptr %6, align 8
  br label %29, !llvm.loop !16

92:                                               ; preds = %29
  %93 = load i8, ptr %15, align 1, !range !14, !noundef !15
  %94 = trunc i8 %93 to i1
  br i1 %94, label %95, label %97

95:                                               ; preds = %92
  %96 = load ptr, ptr %9, align 8
  call void @wmem_strbuf_append_unichar(ptr noundef %96, i32 noundef 65533)
  br label %97

97:                                               ; preds = %95, %92
  %98 = load ptr, ptr %9, align 8
  %99 = call ptr @wmem_strbuf_finalize(ptr noundef %98)
  call void @llvm.lifetime.end.p0(i64 4, ptr %16) #8
  call void @llvm.lifetime.end.p0(i64 1, ptr %15) #8
  call void @llvm.lifetime.end.p0(i64 8, ptr %14) #8
  call void @llvm.lifetime.end.p0(i64 1, ptr %13) #8
  call void @llvm.lifetime.end.p0(i64 1, ptr %12) #8
  call void @llvm.lifetime.end.p0(i64 1, ptr %11) #8
  call void @llvm.lifetime.end.p0(i64 4, ptr %10) #8
  call void @llvm.lifetime.end.p0(i64 8, ptr %9) #8
  ret ptr %99
}