; Function Attrs: null_pointer_is_valid sspstrong uwtable
define ptr @get_ts_23_038_7bits_string_packed(ptr noundef %0, ptr noundef readonly captures(address) %1, i32 noundef %2, i32 noundef %3) local_unnamed_addr #0 {
  %5 = add i32 %3, 1
  %6 = sext i32 %5 to i64
  %7 = tail call noalias ptr @wmem_strbuf_new_sized(ptr noundef %0, i64 noundef %6)
  %8 = icmp sgt i32 %3, 0
  br i1 %8, label %.lr.ph.preheader, label %._crit_edge.thread

.lr.ph.preheader:                                 ; preds = %4
  %9 = and i32 %2, 7
  %.not = icmp eq i32 %9, 0
  %spec.store.select = select i1 %.not, i32 7, i32 %9
  br label %.lr.ph

.lr.ph:                                           ; preds = %.lr.ph.preheader, %36
  %.047 = phi i32 [ %.1, %36 ], [ %spec.store.select, %.lr.ph.preheader ]
  %.03346 = phi i8 [ %.2, %36 ], [ 0, %.lr.ph.preheader ]
  %.03545 = phi ptr [ %37, %36 ], [ %1, %.lr.ph.preheader ]
  %.03644 = phi i32 [ %.137, %36 ], [ 0, %.lr.ph.preheader ]
  %.03843 = phi i32 [ %.240, %36 ], [ 0, %.lr.ph.preheader ]
  %10 = load i8, ptr %.03545, align 1
  %11 = zext i8 %10 to i32
  %12 = lshr i32 %11, %.047
  %13 = trunc nuw i32 %12 to i8
  %14 = icmp ne ptr %1, %.03545
  %15 = icmp eq i32 %.047, 7
  %or.cond = select i1 %14, i1 true, i1 %15
  br i1 %or.cond, label %16, label %26

16:                                               ; preds = %.lr.ph
  %17 = sub i32 7, %.047
  %18 = shl i32 %11, %17
  %19 = and i32 %18, 127
  %20 = or i32 %19, %.03644
  %21 = trunc nuw i32 %20 to i8
  %22 = trunc nuw i8 %.03346 to i1
  %23 = tail call fastcc zeroext i1 @handle_ts_23_038_char(ptr noundef %7, i8 noundef zeroext %21, i1 noundef zeroext %22)
  %24 = zext i1 %23 to i8
  %25 = add nsw i32 %.03843, 1
  br label %26

26:                                               ; preds = %.lr.ph, %16
  %.139 = phi i32 [ %25, %16 ], [ %.03843, %.lr.ph ]
  %.134 = phi i8 [ %24, %16 ], [ %.03346, %.lr.ph ]
  %27 = icmp eq i32 %.047, 1
  %28 = icmp slt i32 %.139, %3
  %or.cond42 = and i1 %27, %28
  br i1 %or.cond42, label %29, label %34

29:                                               ; preds = %26
  %30 = trunc nuw i8 %.134 to i1
  %31 = tail call fastcc zeroext i1 @handle_ts_23_038_char(ptr noundef %7, i8 noundef zeroext %13, i1 noundef zeroext %30)
  %32 = zext i1 %31 to i8
  %33 = add nsw i32 %.139, 1
  br label %36

34:                                               ; preds = %26
  %35 = add i32 %.047, -1
  br label %36

36:                                               ; preds = %29, %34
  %.240 = phi i32 [ %33, %29 ], [ %.139, %34 ]
  %.137 = phi i32 [ 0, %29 ], [ %12, %34 ]
  %.2 = phi i8 [ %32, %29 ], [ %.134, %34 ]
  %.1 = phi i32 [ 7, %29 ], [ %35, %34 ]
  %37 = getelementptr i8, ptr %.03545, i64 1
  %38 = icmp slt i32 %.240, %3
  br i1 %38, label %.lr.ph, label %._crit_edge, !llvm.loop !14

._crit_edge:                                      ; preds = %36
  %39 = trunc nuw i8 %.2 to i1
  br i1 %39, label %40, label %._crit_edge.thread

40:                                               ; preds = %._crit_edge
  tail call void @wmem_strbuf_append_unichar(ptr noundef %7, i32 noundef 65533)
  br label %._crit_edge.thread

._crit_edge.thread:                               ; preds = %4, %40, %._crit_edge
  %41 = tail call ptr @wmem_strbuf_finalize(ptr noundef %7)
  ret ptr %41
}